; Function Attrs: mustprogress nounwind uwtable
define dso_local noundef ptr @_ZNK4llvm7IVUsers9getStrideERKNS_11IVStrideUseEPKNS_4LoopE(ptr nocapture noundef nonnull readonly align 8 dereferenceable(504) %0, ptr noundef nonnull align 8 dereferenceable(128) %1, ptr noundef %2) local_unnamed_addr #0 align 2 {
  %4 = getelementptr inbounds nuw i8, ptr %0, i64 32
  %5 = load ptr, ptr %4, align 8
  %6 = getelementptr inbounds i8, ptr %1, i64 72
  %7 = load ptr, ptr %6, align 8
  %8 = tail call noundef ptr @_ZN4llvm15ScalarEvolution7getSCEVEPNS_5ValueE(ptr noundef nonnull align 8 dereferenceable(1392) %5, ptr noundef %7) #13
  %9 = getelementptr inbounds nuw i8, ptr %1, i64 80
  %10 = load ptr, ptr %4, align 8
  %11 = tail call noundef ptr @_ZN4llvm22normalizeForPostIncUseEPKNS_4SCEVERKNS_11SmallPtrSetIPKNS_4LoopELj2EEERNS_15ScalarEvolutionEb(ptr noundef %8, ptr noundef nonnull align 8 dereferenceable(48) %9, ptr noundef nonnull align 8 dereferenceable(1392) %10, i1 noundef zeroext true) #13
  %.not = icmp eq ptr %11, null
  br i1 %.not, label %17, label %12

12:                                               ; preds = %3
  %13 = tail call fastcc noundef ptr @_ZL17findAddRecForLoopPKN4llvm4SCEVEPKNS_4LoopE(ptr noundef nonnull %11, ptr noundef %2)
  %.not10 = icmp eq ptr %13, null
  br i1 %.not10, label %17, label %14

14:                                               ; preds = %12
  %15 = load ptr, ptr %4, align 8
  %16 = tail call noundef ptr @_ZNK4llvm14SCEVAddRecExpr17getStepRecurrenceERNS_15ScalarEvolutionE(ptr noundef nonnull align 8 dereferenceable(56) %13, ptr noundef nonnull align 8 dereferenceable(1392) %15)
  br label %17

17:                                               ; preds = %12, %3, %14
  %.0 = phi ptr [ %16, %14 ], [ null, %3 ], [ null, %12 ]
  ret ptr %.0
}